; Function Attrs: alwaysinline norecurse nounwind ssp uwtable
define internal void @"_ZN6open3d4core15ParallelForCPU_IZZZNS_1t8geometry6kernel12trianglemesh19NormalizeNormalsCPUERNS0_6TensorEENK3$_0clEvENKUlvE_clEvEUllE_EEvRKNS0_6DeviceElRKT_.omp_outlined"(ptr noalias noundef readonly captures(none) %0, ptr noalias readnone captures(none) %1, ptr noundef nonnull readonly align 8 captures(none) dereferenceable(8) %2, ptr noundef nonnull readonly align 8 captures(none) dereferenceable(8) %3) #25 personality ptr @__gxx_personality_v0 {
  %5 = alloca i64, align 8
  %6 = alloca i64, align 8
  %7 = alloca i64, align 8
  %8 = alloca i32, align 4
  %9 = load i64, ptr %2, align 8, !tbaa !41
  %10 = icmp sgt i64 %9, 0
  br i1 %10, label %11, label %35

11:                                               ; preds = %4
  %12 = add nsw i64 %9, -1
  call void @llvm.lifetime.start.p0(i64 8, ptr nonnull %5) #26
  store i64 0, ptr %5, align 8, !tbaa !41
  call void @llvm.lifetime.start.p0(i64 8, ptr nonnull %6) #26
  store i64 %12, ptr %6, align 8, !tbaa !41
  call void @llvm.lifetime.start.p0(i64 8, ptr nonnull %7) #26
  store i64 1, ptr %7, align 8, !tbaa !41
  call void @llvm.lifetime.start.p0(i64 4, ptr nonnull %8) #26
  store i32 0, ptr %8, align 4, !tbaa !28
  %13 = load i32, ptr %0, align 4, !tbaa !28
  call void @__kmpc_for_static_init_8(ptr nonnull @1, i32 %13, i32 34, ptr nonnull %8, ptr nonnull %5, ptr nonnull %6, ptr nonnull %7, i64 1, i64 1)
  %14 = load i64, ptr %6, align 8, !tbaa !41
  %15 = call i64 @llvm.smin.i64(i64 %14, i64 %12)
  store i64 %15, ptr %6, align 8, !tbaa !41
  %16 = load i64, ptr %5, align 8, !tbaa !41
  %.not13 = icmp sgt i64 %16, %15
  br i1 %.not13, label %._crit_edge, label %.lr.ph

.lr.ph:                                           ; preds = %11
  %17 = load ptr, ptr %3, align 8, !tbaa !47
  br label %18

18:                                               ; preds = %.lr.ph, %"_ZZZZN6open3d1t8geometry6kernel12trianglemesh19NormalizeNormalsCPUERNS_4core6TensorEENK3$_0clEvENKUlvE_clEvENKUllE_clEl.exit"
  %.014 = phi i64 [ %16, %.lr.ph ], [ %34, %"_ZZZZN6open3d1t8geometry6kernel12trianglemesh19NormalizeNormalsCPUERNS_4core6TensorEENK3$_0clEvENKUlvE_clEvENKUllE_clEl.exit" ]
  %.idx = mul nsw i64 %.014, 12
  %19 = getelementptr inbounds i8, ptr %17, i64 %.idx
  %20 = load float, ptr %19, align 4, !tbaa !658
  %21 = fcmp uno float %20, 0.000000e+00
  br i1 %21, label %"_ZZZZN6open3d1t8geometry6kernel12trianglemesh19NormalizeNormalsCPUERNS_4core6TensorEENK3$_0clEvENKUlvE_clEvENKUllE_clEl.exit", label %22

22:                                               ; preds = %18
  %23 = getelementptr i8, ptr %19, i64 8
  %24 = load float, ptr %23, align 4, !tbaa !658
  %25 = getelementptr i8, ptr %19, i64 4
  %26 = load float, ptr %25, align 4, !tbaa !658
  %27 = fmul float %26, %26
  %28 = call float @llvm.fmuladd.f32(float %20, float %20, float %27)
  %29 = call float @llvm.fmuladd.f32(float %24, float %24, float %28)
  %sqrt.i = call float @llvm.sqrt.f32(float %29)
  %30 = fcmp ogt float %29, 0.000000e+00
  %31 = fdiv float %26, %sqrt.i
  %32 = fdiv float %24, %sqrt.i
  %.025.i = select i1 %30, float %31, float %26
  %.024.i = select i1 %30, float %32, float %24
  %33 = select i1 %30, float %sqrt.i, float 1.000000e+00
  %.0.i = fdiv float %20, %33
  store float %.0.i, ptr %19, align 4, !tbaa !658
  store float %.025.i, ptr %25, align 4, !tbaa !658
  store float %.024.i, ptr %23, align 4, !tbaa !658
  br label %"_ZZZZN6open3d1t8geometry6kernel12trianglemesh19NormalizeNormalsCPUERNS_4core6TensorEENK3$_0clEvENKUlvE_clEvENKUllE_clEl.exit"

"_ZZZZN6open3d1t8geometry6kernel12trianglemesh19NormalizeNormalsCPUERNS_4core6TensorEENK3$_0clEvENKUlvE_clEvENKUllE_clEl.exit": ; preds = %18, %22
  %34 = add i64 %.014, 1
  %exitcond.not = icmp eq i64 %.014, %15
  br i1 %exitcond.not, label %._crit_edge, label %18

._crit_edge:                                      ; preds = %"_ZZZZN6open3d1t8geometry6kernel12trianglemesh19NormalizeNormalsCPUERNS_4core6TensorEENK3$_0clEvENKUlvE_clEvENKUllE_clEl.exit", %11
  call void @__kmpc_for_static_fini(ptr nonnull @1, i32 %13)
  call void @llvm.lifetime.end.p0(i64 4, ptr nonnull %8) #26
  call void @llvm.lifetime.end.p0(i64 8, ptr nonnull %7) #26
  call void @llvm.lifetime.end.p0(i64 8, ptr nonnull %6) #26
  call void @llvm.lifetime.end.p0(i64 8, ptr nonnull %5) #26
  br label %35

35:                                               ; preds = %._crit_edge, %4
  ret void
}